; Function Attrs: nounwind uwtable
define hidden i32 @Curl_xfer_send_shutdown(ptr noundef %0, ptr noundef %1) local_unnamed_addr #0 {
  %.not = icmp eq ptr %0, null
  br i1 %.not, label %16, label %3

3:                                                ; preds = %2
  %4 = getelementptr inbounds nuw i8, ptr %0, i64 24
  %5 = load ptr, ptr %4, align 8, !tbaa !85
  %.not11 = icmp eq ptr %5, null
  br i1 %.not11, label %16, label %6

6:                                                ; preds = %3
  %7 = getelementptr inbounds nuw i8, ptr %5, i64 996
  %8 = load i32, ptr %7, align 4, !tbaa !86
  %9 = icmp eq i32 %8, -1
  br i1 %9, label %16, label %10

10:                                               ; preds = %6
  %11 = getelementptr inbounds nuw i8, ptr %5, i64 572
  %12 = load i32, ptr %11, align 4, !tbaa !95
  %13 = icmp eq i32 %8, %12
  %14 = zext i1 %13 to i32
  %15 = tail call i32 @Curl_conn_shutdown(ptr noundef nonnull %0, i32 noundef %14, ptr noundef %1) #6
  br label %16

16:                                               ; preds = %6, %2, %3, %10
  %.0 = phi i32 [ %15, %10 ], [ 2, %3 ], [ 2, %2 ], [ 2, %6 ]
  ret i32 %.0
}